; Function Attrs: nounwind sspstrong uwtable
define internal i64 @enum_each_slice(i64 noundef %0, i64 noundef %1) #0 {
  %3 = alloca i64, align 8
  store i64 %1, ptr %3, align 8, !tbaa !7
  %4 = and i64 %1, 1
  %.not.i = icmp eq i64 %4, 0
  br i1 %.not.i, label %7, label %5

5:                                                ; preds = %2
  %6 = ashr i64 %1, 1
  br label %rb_num2long_inline.exit

7:                                                ; preds = %2
  %8 = tail call i64 @rb_num2long(i64 noundef %1) #14
  br label %rb_num2long_inline.exit

rb_num2long_inline.exit:                          ; preds = %5, %7
  %.0.i = phi i64 [ %6, %5 ], [ %8, %7 ]
  %9 = icmp slt i64 %.0.i, 1
  br i1 %9, label %10, label %12

10:                                               ; preds = %rb_num2long_inline.exit
  %11 = load i64, ptr @rb_eArgError, align 8, !tbaa !7
  tail call void (i64, ptr, ...) @rb_raise(i64 noundef %11, ptr noundef nonnull @.str.87) #15
  unreachable

12:                                               ; preds = %rb_num2long_inline.exit
  %13 = tail call i32 @rb_block_given_p() #14
  %.not = icmp eq i32 %13, 0
  br i1 %.not, label %14, label %18

14:                                               ; preds = %12
  %15 = tail call i64 @rb_frame_this_func() #14
  %16 = tail call i64 @rb_id2sym(i64 noundef %15) #14
  %17 = call i64 @rb_enumeratorize_with_size(i64 noundef %0, i64 noundef %16, i32 noundef 1, ptr noundef nonnull %3, ptr noundef nonnull @enum_each_slice_size) #14
  br label %48

18:                                               ; preds = %12
  %19 = tail call i64 @rb_check_funcall(i64 noundef %0, i64 noundef 3025, i32 noundef 0, ptr noundef null) #14
  %20 = and i64 %19, 1
  %.not.i17 = icmp eq i64 %20, 0
  %21 = ashr i64 %19, 1
  %22 = tail call i64 @llvm.umin.i64(i64 range(i64 1, -9223372036854775808) %.0.i, i64 %21)
  %.0.i18 = select i1 %.not.i17, i64 %.0.i, i64 %22
  %23 = tail call i64 @rb_ary_new_capa(i64 noundef %.0.i18) #14
  %24 = tail call i32 @rb_block_arity() #14
  %25 = icmp eq i32 %24, 1
  %26 = icmp slt i32 %24, 0
  %27 = or i1 %25, %26
  %28 = zext i1 %27 to i64
  %29 = tail call i64 @rb_imemo_new(i32 noundef 5, i64 noundef 0, i64 noundef 40) #14
  %30 = inttoptr i64 %29 to ptr
  %31 = getelementptr inbounds nuw i8, ptr %30, i64 16
  store i64 %23, ptr %31, align 8, !tbaa !7
  %32 = getelementptr inbounds nuw i8, ptr %30, i64 24
  store i64 %28, ptr %32, align 8, !tbaa !7
  %33 = getelementptr inbounds nuw i8, ptr %30, i64 32
  store i64 %.0.i18, ptr %33, align 8, !tbaa !22
  %34 = tail call i64 @rb_block_call(i64 noundef %0, i64 noundef 3073, i32 noundef 0, ptr noundef null, ptr noundef nonnull @each_slice_i, i64 noundef %29) #14
  %35 = load i64, ptr %31, align 8, !tbaa !60
  %36 = inttoptr i64 %35 to ptr
  %37 = load i64, ptr %36, align 8, !tbaa !20
  %38 = and i64 %37, 8192
  %.not.i19 = icmp eq i64 %38, 0
  br i1 %.not.i19, label %42, label %39

39:                                               ; preds = %18
  %40 = lshr i64 %37, 15
  %41 = and i64 %40, 127
  br label %rb_array_len.exit

42:                                               ; preds = %18
  %43 = getelementptr inbounds nuw i8, ptr %36, i64 16
  %44 = load i64, ptr %43, align 8, !tbaa !22
  br label %rb_array_len.exit

rb_array_len.exit:                                ; preds = %39, %42
  %.0.i20 = phi i64 [ %41, %39 ], [ %44, %42 ]
  %45 = icmp sgt i64 %.0.i20, 0
  br i1 %45, label %46, label %48

46:                                               ; preds = %rb_array_len.exit
  %47 = tail call i64 @rb_yield(i64 noundef %35) #14
  br label %48

48:                                               ; preds = %rb_array_len.exit, %46, %14
  %.0 = phi i64 [ %17, %14 ], [ %0, %46 ], [ %0, %rb_array_len.exit ]
  ret i64 %.0
}